; Function Attrs: mustprogress uwtable
define dso_local noundef i32 @_ZNK17ExpressionFuncall14get_complexityEv(ptr noundef nonnull align 8 dereferenceable(32) %0) unnamed_addr #3 align 2 {
  %2 = load ptr, ptr %0, align 8
  %3 = getelementptr inbounds i8, ptr %2, i64 56
  %4 = load ptr, ptr %3, align 8
  %5 = tail call noundef ptr %4(ptr noundef nonnull align 8 dereferenceable(32) %0)
  %6 = getelementptr inbounds i8, ptr %5, i64 8
  %7 = load i32, ptr %6, align 8
  %8 = icmp eq i32 %7, 2
  %spec.select = zext i1 %8 to i32
  %9 = getelementptr inbounds i8, ptr %5, i64 16
  %10 = getelementptr inbounds i8, ptr %5, i64 24
  %11 = load ptr, ptr %10, align 8
  %12 = load ptr, ptr %9, align 8
  %.not = icmp eq ptr %11, %12
  br i1 %.not, label %._crit_edge, label %.lr.ph

.lr.ph:                                           ; preds = %1, %.lr.ph
  %13 = phi ptr [ %23, %.lr.ph ], [ %12, %1 ]
  %.011 = phi i64 [ %21, %.lr.ph ], [ 0, %1 ]
  %.110 = phi i32 [ %20, %.lr.ph ], [ %spec.select, %1 ]
  %14 = getelementptr inbounds ptr, ptr %13, i64 %.011
  %15 = load ptr, ptr %14, align 8
  %16 = load ptr, ptr %15, align 8
  %17 = getelementptr inbounds i8, ptr %16, i64 96
  %18 = load ptr, ptr %17, align 8
  %19 = tail call noundef i32 %18(ptr noundef nonnull align 8 dereferenceable(24) %15)
  %20 = add i32 %19, %.110
  %21 = add nuw i64 %.011, 1
  %22 = load ptr, ptr %10, align 8
  %23 = load ptr, ptr %9, align 8
  %24 = ptrtoint ptr %22 to i64
  %25 = ptrtoint ptr %23 to i64
  %26 = sub i64 %24, %25
  %27 = ashr exact i64 %26, 3
  %28 = icmp ult i64 %21, %27
  br i1 %28, label %.lr.ph, label %._crit_edge, !llvm.loop !8

._crit_edge:                                      ; preds = %.lr.ph, %1
  %.1.lcssa = phi i32 [ %spec.select, %1 ], [ %20, %.lr.ph ]
  ret i32 %.1.lcssa
}